(dp1
S'sg_version_data'
p2
(dp3
S'code'
p4
S'v0.2.4'
p5
sS'description'
p6
S'Updates the framework dependencies to the latest major version.'
p7
sS'sg_payload'
p8
(dp9
S'name'
p10
S'tk-framework-widget_v0.2.4.zip'
p11
sS'url'
p12
S'https://tank.shotgunstudio.com/file_serve/attachment/14204'
p13
sS'content_type'
p14
S'application/zip'
p15
sS'type'
p16
S'Attachment'
p17
sS'id'
p18
I14204
sS'link_type'
p19
S'upload'
p20
ssS'sg_status_list'
p21
S'alpha'
p22
sS'sg_detailed_release_notes'
p23
NsS'sg_documentation'
p24
NsS'tag_list'
p25
(lp26
sS'type'
p27
S'CustomNonProjectEntity09'
p28
sS'id'
p29
I438
ssS'sg_bundle_data'
p30
(dp31
S'sg_status_list'
p32
S'hidden'
p33
sS'type'
p34
S'CustomNonProjectEntity13'
p35
sS'id'
p36
I1
sS'sg_system_name'
p37
S'tk-framework-widget'
p38
sS'sg_deprecation_message'
p39
Nss.