(dp1
S'sg_version_data'
p2
(dp3
S'code'
p4
S'v1.0.10'
p5
sS'description'
p6
S'Use existing path separator, fallback to os.pathsep'
p7
sS'sg_payload'
p8
(dp9
S'name'
p10
S'tk-houdini_v1.0.10.zip'
p11
sS'url'
p12
S'https://tank.shotgunstudio.com/file_serve/attachment/14174'
p13
sS'content_type'
p14
S'application/zip'
p15
sS'type'
p16
S'Attachment'
p17
sS'id'
p18
I14174
sS'link_type'
p19
S'upload'
p20
ssS'sg_status_list'
p21
S'beta'
p22
sS'sg_detailed_release_notes'
p23
(dp24
S'name'
p25
S'v1.0.10'
p26
sS'url'
p27
S'https://support.shotgunsoftware.com/hc/en-us/articles/219039978#v1.0.10'
p28
sS'content_type'
p29
NsS'type'
p30
S'Attachment'
p31
sS'id'
p32
I14171
sS'link_type'
p33
S'web'
p34
ssS'sg_documentation'
p35
(dp36
S'name'
p37
S'Documentation'
p38
sS'url'
p39
S'https://support.shotgunsoftware.com/hc/en-us/articles/219039978'
p40
sS'content_type'
p41
NsS'type'
p42
S'Attachment'
p43
sS'id'
p44
I14173
sS'link_type'
p45
S'web'
p46
ssS'tag_list'
p47
(lp48
sS'type'
p49
S'CustomNonProjectEntity04'
p50
sS'id'
p51
I572
ssS'sg_bundle_data'
p52
(dp53
S'sg_status_list'
p54
S'depl'
p55
sS'type'
p56
S'CustomNonProjectEntity03'
p57
sS'id'
p58
I6
sS'sg_system_name'
p59
S'tk-houdini'
p60
sS'sg_deprecation_message'
p61
Nss.