(dp1
S'sg_version_data'
p2
(dp3
S'code'
p4
S'v4.4.15'
p5
sS'description'
p6
S'All schema cache methods that accept entity type and field now handle bubble field notation'
p7
sS'sg_payload'
p8
(dp9
S'name'
p10
S'tk-framework-shotgunutils_v4.4.15.zip'
p11
sS'url'
p12
S'https://tank.shotgunstudio.com/file_serve/attachment/14977'
p13
sS'content_type'
p14
S'application/zip'
p15
sS'type'
p16
S'Attachment'
p17
sS'id'
p18
I14977
sS'link_type'
p19
S'upload'
p20
ssS'sg_status_list'
p21
S'prod'
p22
sS'sg_detailed_release_notes'
p23
(dp24
S'name'
p25
S'v4.4.15'
p26
sS'url'
p27
S'https://support.shotgunsoftware.com/hc/en-us/articles/219040008#v4.4.15'
p28
sS'content_type'
p29
NsS'type'
p30
S'Attachment'
p31
sS'id'
p32
I14974
sS'link_type'
p33
S'web'
p34
ssS'sg_documentation'
p35
(dp36
S'name'
p37
S'Documentation'
p38
sS'url'
p39
S'https://support.shotgunsoftware.com/hc/en-us/articles/219040008'
p40
sS'content_type'
p41
NsS'type'
p42
S'Attachment'
p43
sS'id'
p44
I14976
sS'link_type'
p45
S'web'
p46
ssS'tag_list'
p47
(lp48
sS'type'
p49
S'CustomNonProjectEntity09'
p50
sS'id'
p51
I507
ssS'sg_bundle_data'
p52
(dp53
S'sg_status_list'
p54
S'depl'
p55
sS'type'
p56
S'CustomNonProjectEntity13'
p57
sS'id'
p58
I3
sS'sg_system_name'
p59
S'tk-framework-shotgunutils'
p60
sS'sg_deprecation_message'
p61
Nss.