(dp1
S'sg_version_data'
p2
(dp3
S'code'
p4
S'v1.3.0'
p5
sS'description'
p6
S'Adds a new menu icon for the Shotgun Panel app.'
p7
sS'sg_payload'
p8
(dp9
S'name'
p10
S'tk-multi-shotgunpanel_v1.3.0.zip'
p11
sS'url'
p12
S'https://tank.shotgunstudio.com/file_serve/attachment/15754'
p13
sS'content_type'
p14
S'application/zip'
p15
sS'type'
p16
S'Attachment'
p17
sS'id'
p18
I15754
sS'link_type'
p19
S'upload'
p20
ssS'sg_status_list'
p21
S'prod'
p22
sS'sg_detailed_release_notes'
p23
(dp24
S'name'
p25
S'v1.3.0'
p26
sS'url'
p27
S'https://support.shotgunsoftware.com/hc/en-us/articles/219033098#v1.3.0'
p28
sS'content_type'
p29
NsS'type'
p30
S'Attachment'
p31
sS'id'
p32
I15751
sS'link_type'
p33
S'web'
p34
ssS'sg_documentation'
p35
(dp36
S'name'
p37
S'Documentation'
p38
sS'url'
p39
S'https://support.shotgunsoftware.com/hc/en-us/articles/219033098'
p40
sS'content_type'
p41
NsS'type'
p42
S'Attachment'
p43
sS'id'
p44
I15753
sS'link_type'
p45
S'web'
p46
ssS'tag_list'
p47
(lp48
sS'type'
p49
S'CustomNonProjectEntity05'
p50
sS'id'
p51
I2353
ssS'sg_bundle_data'
p52
(dp53
S'sg_status_list'
p54
S'depl'
p55
sS'type'
p56
S'CustomNonProjectEntity02'
p57
sS'id'
p58
I150
sS'sg_system_name'
p59
S'tk-multi-shotgunpanel'
p60
sS'sg_deprecation_message'
p61
Nss.